target datalayout = "e-m:e-p270:32:32-p271:32:32-p272:64:64-i64:64-i128:128-f80:128-n8:16:32:64-S128"
target triple = "x86_64-pc-linux-gnu"

%struct.expert_field = type { i32, i32 }
%struct._packet_info = type { ptr, ptr, i32, i32, %struct.nstime_t, %struct.nstime_t, %struct.nstime_t, i8, ptr, ptr, ptr, ptr, %struct._address, %struct._address, %struct._address, %struct._address, %struct._address, %struct._address, i32, ptr, i8, [3 x i8], %struct.anon, i32, i32, i32, i32, ptr, i8, ptr, ptr, i16, i16, i32, i32, i16, i32, i32, ptr, ptr, ptr, i8, i8, i16, i16, i16, i32, i16, i16, ptr, ptr, ptr, ptr, ptr, i32, i32 }
%struct.nstime_t = type { i64, i32 }
%struct._address = type { i32, i32, ptr, ptr }
%struct.anon = type { i8, [3 x i8] }
%struct._link_state_data = type { i8, i32, i32, i16, i8, ptr }

@hf_bgp_ls_nlri_node_protocol_id = internal global i32 0, align 4
@hf_bgp_ls_nlri_node_identifier = internal global i32 0, align 4
@ei_bgp_ls_error = internal global %struct.expert_field zeroinitializer, align 4
@proto_bgp = internal global i32 0, align 4
@.str.1899 = private unnamed_addr constant [52 x i8] c"Link State NLRI length is lower than 12 bytes! (%d)\00", align 1
@.str.1900 = private unnamed_addr constant [56 x i8] c"Unknown data in Link-State Link NLRI! length = %d bytes\00", align 1

; Function Attrs: null_pointer_is_valid sspstrong uwtable
define internal void @save_link_state_protocol_id(ptr noundef %0, i8 noundef zeroext %1) #0 {
  %3 = alloca ptr, align 8
  %4 = alloca i8, align 1
  %5 = alloca ptr, align 8
  store ptr %0, ptr %3, align 8
  store i8 %1, ptr %4, align 1
  call void @llvm.lifetime.start.p0(i64 8, ptr %5) #6
  %6 = load ptr, ptr %3, align 8
  %7 = getelementptr inbounds nuw %struct._packet_info, ptr %6, i32 0, i32 51
  %8 = load ptr, ptr %7, align 8
  %9 = load ptr, ptr %3, align 8
  %10 = load i32, ptr @proto_bgp, align 4
  %11 = call ptr @p_get_proto_data(ptr noundef %8, ptr noundef %9, i32 noundef %10, i32 noundef 0)
  store ptr %11, ptr %5, align 8
  %12 = load ptr, ptr %5, align 8
  %13 = icmp ne ptr %12, null
  br i1 %13, label %29, label %14

14:                                               ; preds = %2
  %15 = load ptr, ptr %3, align 8
  %16 = getelementptr inbounds nuw %struct._packet_info, ptr %15, i32 0, i32 51
  %17 = load ptr, ptr %16, align 8
  %18 = call noalias ptr @wmem_alloc0(ptr noundef %17, i64 noundef 24) #7
  store ptr %18, ptr %5, align 8
  %19 = load ptr, ptr %5, align 8
  %20 = getelementptr inbounds nuw %struct._link_state_data, ptr %19, i32 0, i32 1
  store i32 -1, ptr %20, align 4
  %21 = load ptr, ptr %5, align 8
  %22 = getelementptr inbounds nuw %struct._link_state_data, ptr %21, i32 0, i32 2
  store i32 -1, ptr %22, align 8
  %23 = load ptr, ptr %5, align 8
  %24 = getelementptr inbounds nuw %struct._link_state_data, ptr %23, i32 0, i32 3
  store i16 0, ptr %24, align 4
  %25 = load ptr, ptr %5, align 8
  %26 = getelementptr inbounds nuw %struct._link_state_data, ptr %25, i32 0, i32 4
  store i8 0, ptr %26, align 2
  %27 = load ptr, ptr %5, align 8
  %28 = getelementptr inbounds nuw %struct._link_state_data, ptr %27, i32 0, i32 5
  store ptr null, ptr %28, align 8
  br label %29

29:                                               ; preds = %14, %2
  %30 = load i8, ptr %4, align 1
  %31 = load ptr, ptr %5, align 8
  %32 = getelementptr inbounds nuw %struct._link_state_data, ptr %31, i32 0, i32 0
  store i8 %30, ptr %32, align 8
  %33 = load ptr, ptr %3, align 8
  %34 = getelementptr inbounds nuw %struct._packet_info, ptr %33, i32 0, i32 51
  %35 = load ptr, ptr %34, align 8
  %36 = load ptr, ptr %3, align 8
  %37 = load i32, ptr @proto_bgp, align 4
  %38 = load ptr, ptr %5, align 8
  call void @p_add_proto_data(ptr noundef %35, ptr noundef %36, i32 noundef %37, i32 noundef 0, ptr noundef %38)
  call void @llvm.lifetime.end.p0(i64 8, ptr %5) #6
  ret void
}

; Function Attrs: null_pointer_is_valid sspstrong uwtable
define internal i32 @decode_bgp_link_node_nlri_common_fields(ptr noundef %0, ptr noundef %1, i32 noundef %2, ptr noundef %3, i32 noundef %4) #0 {
  %6 = alloca i32, align 4
  %7 = alloca ptr, align 8
  %8 = alloca ptr, align 8
  %9 = alloca i32, align 4
  %10 = alloca ptr, align 8
  %11 = alloca i32, align 4
  %12 = alloca i32, align 4
  %13 = alloca i32, align 4
  %14 = alloca i32, align 4
  store ptr %0, ptr %7, align 8
  store ptr %1, ptr %8, align 8
  store i32 %2, ptr %9, align 4
  store ptr %3, ptr %10, align 8
  store i32 %4, ptr %11, align 4
  call void @llvm.lifetime.start.p0(i64 4, ptr %12) #6
  call void @llvm.lifetime.start.p0(i64 4, ptr %13) #6
  %15 = load i32, ptr %11, align 4
  %16 = icmp slt i32 %15, 12
  br i1 %16, label %17, label %23

17:                                               ; preds = %5
  %18 = load ptr, ptr %10, align 8
  %19 = load ptr, ptr %8, align 8
  %20 = load i32, ptr %11, align 4
  %21 = call ptr (ptr, ptr, ptr, ptr, ...) @expert_add_info_format(ptr noundef %18, ptr noundef %19, ptr noundef @ei_bgp_ls_error, ptr noundef @.str.1899, i32 noundef %20)
  %22 = load i32, ptr %11, align 4
  store i32 %22, ptr %6, align 4
  store i32 1, ptr %14, align 4
  br label %67

23:                                               ; preds = %5
  %24 = load ptr, ptr %8, align 8
  %25 = load i32, ptr @hf_bgp_ls_nlri_node_protocol_id, align 4
  %26 = load ptr, ptr %7, align 8
  %27 = load i32, ptr %9, align 4
  %28 = call ptr @proto_tree_add_item(ptr noundef %24, i32 noundef %25, ptr noundef %26, i32 noundef %27, i32 noundef 1, i32 noundef 0)
  %29 = load ptr, ptr %10, align 8
  %30 = load ptr, ptr %7, align 8
  %31 = load i32, ptr %9, align 4
  %32 = call zeroext i8 @tvb_get_uint8(ptr noundef %30, i32 noundef %31)
  call void @save_link_state_protocol_id(ptr noundef %29, i8 noundef zeroext %32)
  %33 = load ptr, ptr %8, align 8
  %34 = load i32, ptr @hf_bgp_ls_nlri_node_identifier, align 4
  %35 = load ptr, ptr %7, align 8
  %36 = load i32, ptr %9, align 4
  %37 = add i32 %36, 1
  %38 = call ptr @proto_tree_add_item(ptr noundef %33, i32 noundef %34, ptr noundef %35, i32 noundef %37, i32 noundef 8, i32 noundef 0)
  store i32 9, ptr %12, align 4
  %39 = load i32, ptr %12, align 4
  %40 = load i32, ptr %9, align 4
  %41 = add i32 %40, %39
  store i32 %41, ptr %9, align 4
  %42 = load i32, ptr %12, align 4
  %43 = load i32, ptr %11, align 4
  %44 = sub i32 %43, %42
  store i32 %44, ptr %11, align 4
  %45 = load i32, ptr %11, align 4
  %46 = icmp slt i32 %45, 4
  br i1 %46, label %47, label %53

47:                                               ; preds = %23
  %48 = load ptr, ptr %10, align 8
  %49 = load ptr, ptr %8, align 8
  %50 = load i32, ptr %11, align 4
  %51 = call ptr (ptr, ptr, ptr, ptr, ...) @expert_add_info_format(ptr noundef %48, ptr noundef %49, ptr noundef @ei_bgp_ls_error, ptr noundef @.str.1900, i32 noundef %50)
  %52 = load i32, ptr %12, align 4
  store i32 %52, ptr %6, align 4
  store i32 1, ptr %14, align 4
  br label %67

53:                                               ; preds = %23
  %54 = load ptr, ptr %7, align 8
  %55 = load ptr, ptr %8, align 8
  %56 = load i32, ptr %9, align 4
  %57 = load ptr, ptr %10, align 8
  %58 = call i32 @decode_bgp_link_node_nlri_tlvs(ptr noundef %54, ptr noundef %55, i32 noundef %56, ptr noundef %57, i16 noundef zeroext 256)
  store i32 %58, ptr %13, align 4
  %59 = load i32, ptr %13, align 4
  %60 = icmp slt i32 %59, 0
  br i1 %60, label %61, label %62

61:                                               ; preds = %53
  store i32 -1, ptr %6, align 4
  store i32 1, ptr %14, align 4
  br label %67

62:                                               ; preds = %53
  %63 = load i32, ptr %13, align 4
  %64 = load i32, ptr %12, align 4
  %65 = add i32 %64, %63
  store i32 %65, ptr %12, align 4
  %66 = load i32, ptr %12, align 4
  store i32 %66, ptr %6, align 4
  store i32 1, ptr %14, align 4
  br label %67

67:                                               ; preds = %62, %61, %47, %17
  call void @llvm.lifetime.end.p0(i64 4, ptr %13) #6
  call void @llvm.lifetime.end.p0(i64 4, ptr %12) #6
  %68 = load i32, ptr %6, align 4
  ret i32 %68
}