; Function Attrs: null_pointer_is_valid sspstrong uwtable
define internal fastcc range(i32 0, 65549) i32 @decode_bgp_link_node_nlri_common_fields(ptr noundef %0, ptr noundef %1, i32 noundef %2, ptr noundef %3, i32 noundef range(i32 0, 65536) %4) unnamed_addr #0 {
  %6 = icmp samesign ult i32 %4, 12
  br i1 %6, label %7, label %9

7:                                                ; preds = %5
  %8 = tail call ptr (ptr, ptr, ptr, ptr, ...) @expert_add_info_format(ptr noundef %3, ptr noundef %1, ptr noundef nonnull @ei_bgp_ls_error, ptr noundef nonnull @.str.1899, i32 noundef %4)
  br label %37

9:                                                ; preds = %5
  %10 = load i32, ptr @hf_bgp_ls_nlri_node_protocol_id, align 4
  %11 = tail call ptr @proto_tree_add_item(ptr noundef %1, i32 noundef %10, ptr noundef %0, i32 noundef %2, i32 noundef 1, i32 noundef 0)
  %12 = tail call zeroext i8 @tvb_get_uint8(ptr noundef %0, i32 noundef %2)
  %13 = getelementptr inbounds nuw i8, ptr %3, i64 408
  %14 = load ptr, ptr %13, align 8
  %15 = load i32, ptr @proto_bgp, align 4
  %16 = tail call ptr @p_get_proto_data(ptr noundef %14, ptr noundef %3, i32 noundef %15, i32 noundef 0)
  %.not.i = icmp eq ptr %16, null
  br i1 %.not.i, label %17, label %save_link_state_protocol_id.exit

17:                                               ; preds = %9
  %18 = load ptr, ptr %13, align 8
  %19 = tail call noalias dereferenceable_or_null(24) ptr @wmem_alloc0(ptr noundef %18, i64 noundef 24) #6
  %20 = getelementptr inbounds nuw i8, ptr %19, i64 4
  store i32 -1, ptr %20, align 4
  %21 = getelementptr inbounds nuw i8, ptr %19, i64 8
  store i32 -1, ptr %21, align 8
  %22 = getelementptr inbounds nuw i8, ptr %19, i64 12
  store i16 0, ptr %22, align 4
  %23 = getelementptr inbounds nuw i8, ptr %19, i64 14
  store i8 0, ptr %23, align 2
  %24 = getelementptr inbounds nuw i8, ptr %19, i64 16
  store ptr null, ptr %24, align 8
  br label %save_link_state_protocol_id.exit

save_link_state_protocol_id.exit:                 ; preds = %9, %17
  %.0.i = phi ptr [ %16, %9 ], [ %19, %17 ]
  store i8 %12, ptr %.0.i, align 8
  %25 = load ptr, ptr %13, align 8
  %26 = load i32, ptr @proto_bgp, align 4
  tail call void @p_add_proto_data(ptr noundef %25, ptr noundef %3, i32 noundef %26, i32 noundef 0, ptr noundef %.0.i)
  %27 = load i32, ptr @hf_bgp_ls_nlri_node_identifier, align 4
  %28 = add i32 %2, 1
  %29 = tail call ptr @proto_tree_add_item(ptr noundef %1, i32 noundef %27, ptr noundef %0, i32 noundef %28, i32 noundef 8, i32 noundef 0)
  %30 = icmp eq i32 %4, 12
  br i1 %30, label %31, label %33

31:                                               ; preds = %save_link_state_protocol_id.exit
  %32 = tail call ptr (ptr, ptr, ptr, ptr, ...) @expert_add_info_format(ptr noundef %3, ptr noundef %1, ptr noundef nonnull @ei_bgp_ls_error, ptr noundef nonnull @.str.1900, i32 noundef 3)
  br label %37

33:                                               ; preds = %save_link_state_protocol_id.exit
  %34 = add i32 %2, 9
  %35 = tail call fastcc i32 @decode_bgp_link_node_nlri_tlvs(ptr noundef %0, ptr noundef %1, i32 noundef %34, ptr noundef %3, i16 noundef zeroext 256)
  %36 = add nuw nsw i32 %35, 9
  br label %37

37:                                               ; preds = %33, %31, %7
  %.0 = phi i32 [ %4, %7 ], [ 9, %31 ], [ %36, %33 ]
  ret i32 %.0
}